
blinky.elf:     file format elf32-littlearm


Disassembly of section .text:

08000000 <__isr_vector>:
 8000000:	2000c000 	andcs	ip, r0, r0
 8000004:	08000191 	stmdaeq	r0, {r0, r4, r7, r8}
 8000008:	080001b9 	stmdaeq	r0, {r0, r3, r4, r5, r7, r8}
 800000c:	080001b9 	stmdaeq	r0, {r0, r3, r4, r5, r7, r8}
 8000010:	080001b9 	stmdaeq	r0, {r0, r3, r4, r5, r7, r8}
 8000014:	080001b9 	stmdaeq	r0, {r0, r3, r4, r5, r7, r8}
 8000018:	080001b9 	stmdaeq	r0, {r0, r3, r4, r5, r7, r8}
	...
 800002c:	080001b9 	stmdaeq	r0, {r0, r3, r4, r5, r7, r8}
 8000030:	080001b9 	stmdaeq	r0, {r0, r3, r4, r5, r7, r8}
 8000034:	00000000 	andeq	r0, r0, r0
 8000038:	080001b9 	stmdaeq	r0, {r0, r3, r4, r5, r7, r8}
 800003c:	080001b9 	stmdaeq	r0, {r0, r3, r4, r5, r7, r8}
 8000040:	080001b9 	stmdaeq	r0, {r0, r3, r4, r5, r7, r8}
 8000044:	080001b9 	stmdaeq	r0, {r0, r3, r4, r5, r7, r8}
 8000048:	080001b9 	stmdaeq	r0, {r0, r3, r4, r5, r7, r8}
 800004c:	080001b9 	stmdaeq	r0, {r0, r3, r4, r5, r7, r8}
 8000050:	080001b9 	stmdaeq	r0, {r0, r3, r4, r5, r7, r8}
 8000054:	080001b9 	stmdaeq	r0, {r0, r3, r4, r5, r7, r8}
 8000058:	080001b9 	stmdaeq	r0, {r0, r3, r4, r5, r7, r8}
 800005c:	080001b9 	stmdaeq	r0, {r0, r3, r4, r5, r7, r8}
 8000060:	080001b9 	stmdaeq	r0, {r0, r3, r4, r5, r7, r8}
 8000064:	080001b9 	stmdaeq	r0, {r0, r3, r4, r5, r7, r8}
 8000068:	080001b9 	stmdaeq	r0, {r0, r3, r4, r5, r7, r8}
 800006c:	080001b9 	stmdaeq	r0, {r0, r3, r4, r5, r7, r8}
 8000070:	080001b9 	stmdaeq	r0, {r0, r3, r4, r5, r7, r8}
 8000074:	080001b9 	stmdaeq	r0, {r0, r3, r4, r5, r7, r8}
 8000078:	080001b9 	stmdaeq	r0, {r0, r3, r4, r5, r7, r8}
 800007c:	080001b9 	stmdaeq	r0, {r0, r3, r4, r5, r7, r8}
 8000080:	080001b9 	stmdaeq	r0, {r0, r3, r4, r5, r7, r8}
 8000084:	080001b9 	stmdaeq	r0, {r0, r3, r4, r5, r7, r8}
 8000088:	080001b9 	stmdaeq	r0, {r0, r3, r4, r5, r7, r8}
 800008c:	080001b9 	stmdaeq	r0, {r0, r3, r4, r5, r7, r8}
 8000090:	080001b9 	stmdaeq	r0, {r0, r3, r4, r5, r7, r8}
 8000094:	080001b9 	stmdaeq	r0, {r0, r3, r4, r5, r7, r8}
 8000098:	080001b9 	stmdaeq	r0, {r0, r3, r4, r5, r7, r8}
 800009c:	080001b9 	stmdaeq	r0, {r0, r3, r4, r5, r7, r8}
 80000a0:	080001b9 	stmdaeq	r0, {r0, r3, r4, r5, r7, r8}
 80000a4:	080001b9 	stmdaeq	r0, {r0, r3, r4, r5, r7, r8}
 80000a8:	080001b9 	stmdaeq	r0, {r0, r3, r4, r5, r7, r8}
 80000ac:	080001b9 	stmdaeq	r0, {r0, r3, r4, r5, r7, r8}
 80000b0:	0800026d 	stmdaeq	r0, {r0, r2, r3, r5, r6, r9}
	...
 80000bc:	080001b9 	stmdaeq	r0, {r0, r3, r4, r5, r7, r8}
 80000c0:	080001b9 	stmdaeq	r0, {r0, r3, r4, r5, r7, r8}
	...
 80000cc:	080001b9 	stmdaeq	r0, {r0, r3, r4, r5, r7, r8}
 80000d0:	00000000 	andeq	r0, r0, r0
 80000d4:	080001b9 	stmdaeq	r0, {r0, r3, r4, r5, r7, r8}
 80000d8:	080001b9 	stmdaeq	r0, {r0, r3, r4, r5, r7, r8}
 80000dc:	00000000 	andeq	r0, r0, r0
 80000e0:	080001b9 	stmdaeq	r0, {r0, r3, r4, r5, r7, r8}
 80000e4:	080001b9 	stmdaeq	r0, {r0, r3, r4, r5, r7, r8}
	...
 800010c:	080001b9 	stmdaeq	r0, {r0, r3, r4, r5, r7, r8}
	...
 8000118:	080001b9 	stmdaeq	r0, {r0, r3, r4, r5, r7, r8}
 800011c:	080001b9 	stmdaeq	r0, {r0, r3, r4, r5, r7, r8}
 8000120:	080001b9 	stmdaeq	r0, {r0, r3, r4, r5, r7, r8}
 8000124:	080001b9 	stmdaeq	r0, {r0, r3, r4, r5, r7, r8}
 8000128:	080001b9 	stmdaeq	r0, {r0, r3, r4, r5, r7, r8}
 800012c:	080001b9 	stmdaeq	r0, {r0, r3, r4, r5, r7, r8}
 8000130:	080001b9 	stmdaeq	r0, {r0, r3, r4, r5, r7, r8}
	...
 8000140:	080001b9 	stmdaeq	r0, {r0, r3, r4, r5, r7, r8}
 8000144:	080001b9 	stmdaeq	r0, {r0, r3, r4, r5, r7, r8}
 8000148:	080001b9 	stmdaeq	r0, {r0, r3, r4, r5, r7, r8}
 800014c:	080001b9 	stmdaeq	r0, {r0, r3, r4, r5, r7, r8}
 8000150:	080001b9 	stmdaeq	r0, {r0, r3, r4, r5, r7, r8}
 8000154:	080001b9 	stmdaeq	r0, {r0, r3, r4, r5, r7, r8}
 8000158:	080001b9 	stmdaeq	r0, {r0, r3, r4, r5, r7, r8}
 800015c:	080001b9 	stmdaeq	r0, {r0, r3, r4, r5, r7, r8}
 8000160:	080001b9 	stmdaeq	r0, {r0, r3, r4, r5, r7, r8}
 8000164:	080001b9 	stmdaeq	r0, {r0, r3, r4, r5, r7, r8}
 8000168:	080001b9 	stmdaeq	r0, {r0, r3, r4, r5, r7, r8}
 800016c:	00000000 	andeq	r0, r0, r0
 8000170:	080001b9 	stmdaeq	r0, {r0, r3, r4, r5, r7, r8}
 8000174:	080001b9 	stmdaeq	r0, {r0, r3, r4, r5, r7, r8}
	...
 8000180:	080001b9 	stmdaeq	r0, {r0, r3, r4, r5, r7, r8}
 8000184:	080001b9 	stmdaeq	r0, {r0, r3, r4, r5, r7, r8}
 8000188:	080001b9 	stmdaeq	r0, {r0, r3, r4, r5, r7, r8}
 800018c:	080001b9 	stmdaeq	r0, {r0, r3, r4, r5, r7, r8}

08000190 <Reset_Handler>:
 8000190:	4906      	ldr	r1, [pc, #24]	@ (80001ac <Reset_Handler+0x1c>)
 8000192:	4a07      	ldr	r2, [pc, #28]	@ (80001b0 <Reset_Handler+0x20>)
 8000194:	4b07      	ldr	r3, [pc, #28]	@ (80001b4 <Reset_Handler+0x24>)
 8000196:	429a      	cmp	r2, r3
 8000198:	bfbe      	ittt	lt
 800019a:	f851 0b04 	ldrlt.w	r0, [r1], #4
 800019e:	f842 0b04 	strlt.w	r0, [r2], #4
 80001a2:	e7f8      	blt.n	8000196 <Reset_Handler+0x6>
 80001a4:	f000 f80a 	bl	80001bc <SystemInit>
 80001a8:	f000 f851 	bl	800024e <_start>
 80001ac:	08000300 	stmdaeq	r0, {r8, r9}
 80001b0:	20000000 	andcs	r0, r0, r0
 80001b4:	20000000 	andcs	r0, r0, r0

080001b8 <ADC1_IRQHandler>:
 80001b8:	e7fe      	b.n	80001b8 <ADC1_IRQHandler>
 80001ba:	bf00      	nop

080001bc <SystemInit>:
 80001bc:	4837      	ldr	r0, [pc, #220]	@ (800029c <write_bsrr+0x8>)
 80001be:	6800      	ldr	r0, [r0, #0]
 80001c0:	f04f 0101 	mov.w	r1, #1
 80001c4:	ea4f 0141 	mov.w	r1, r1, lsl #1
 80001c8:	6802      	ldr	r2, [r0, #0]
 80001ca:	ea42 0201 	orr.w	r2, r2, r1
 80001ce:	6002      	str	r2, [r0, #0]
 80001d0:	4833      	ldr	r0, [pc, #204]	@ (80002a0 <write_bsrr+0xc>)
 80001d2:	6800      	ldr	r0, [r0, #0]
 80001d4:	ea4f 0151 	mov.w	r1, r1, lsr #1
 80001d8:	6802      	ldr	r2, [r0, #0]
 80001da:	ea42 0201 	orr.w	r2, r2, r1
 80001de:	6002      	str	r2, [r0, #0]
 80001e0:	4830      	ldr	r0, [pc, #192]	@ (80002a4 <write_bsrr+0x10>)
 80001e2:	6800      	ldr	r0, [r0, #0]
 80001e4:	ea4f 3101 	mov.w	r1, r1, lsl #12
 80001e8:	ea4f 0241 	mov.w	r2, r1, lsl #1
 80001ec:	6803      	ldr	r3, [r0, #0]
 80001ee:	ea23 0302 	bic.w	r3, r3, r2
 80001f2:	ea43 0301 	orr.w	r3, r3, r1
 80001f6:	6003      	str	r3, [r0, #0]
 80001f8:	482b      	ldr	r0, [pc, #172]	@ (80002a8 <write_bsrr+0x14>)
 80001fa:	6800      	ldr	r0, [r0, #0]
 80001fc:	ea4f 11d1 	mov.w	r1, r1, lsr #7
 8000200:	6802      	ldr	r2, [r0, #0]
 8000202:	ea22 0201 	bic.w	r2, r2, r1
 8000206:	6002      	str	r2, [r0, #0]
 8000208:	4828      	ldr	r0, [pc, #160]	@ (80002ac <write_bsrr+0x18>)
 800020a:	6800      	ldr	r0, [r0, #0]
 800020c:	f240 118f 	movw	r1, #399	@ 0x18f
 8000210:	8001      	strh	r1, [r0, #0]
 8000212:	4827      	ldr	r0, [pc, #156]	@ (80002b0 <write_bsrr+0x1c>)
 8000214:	6800      	ldr	r0, [r0, #0]
 8000216:	f242 710f 	movw	r1, #9999	@ 0x270f
 800021a:	6001      	str	r1, [r0, #0]
 800021c:	4825      	ldr	r0, [pc, #148]	@ (80002b4 <write_bsrr+0x20>)
 800021e:	6800      	ldr	r0, [r0, #0]
 8000220:	f04f 0101 	mov.w	r1, #1
 8000224:	8802      	ldrh	r2, [r0, #0]
 8000226:	ea42 0201 	orr.w	r2, r2, r1
 800022a:	8002      	strh	r2, [r0, #0]
 800022c:	4822      	ldr	r0, [pc, #136]	@ (80002b8 <write_bsrr+0x24>)
 800022e:	6800      	ldr	r0, [r0, #0]
 8000230:	ea4f 7101 	mov.w	r1, r1, lsl #28
 8000234:	6802      	ldr	r2, [r0, #0]
 8000236:	ea42 0201 	orr.w	r2, r2, r1
 800023a:	6002      	str	r2, [r0, #0]
 800023c:	481f      	ldr	r0, [pc, #124]	@ (80002bc <write_bsrr+0x28>)
 800023e:	6800      	ldr	r0, [r0, #0]
 8000240:	ea4f 7111 	mov.w	r1, r1, lsr #28
 8000244:	8802      	ldrh	r2, [r0, #0]
 8000246:	ea42 0201 	orr.w	r2, r2, r1
 800024a:	8002      	strh	r2, [r0, #0]
 800024c:	4770      	bx	lr

0800024e <_start>:
 800024e:	481c      	ldr	r0, [pc, #112]	@ (80002c0 <write_bsrr+0x2c>)
 8000250:	6800      	ldr	r0, [r0, #0]
 8000252:	491c      	ldr	r1, [pc, #112]	@ (80002c4 <write_bsrr+0x30>)
 8000254:	6809      	ldr	r1, [r1, #0]
 8000256:	4a1c      	ldr	r2, [pc, #112]	@ (80002c8 <write_bsrr+0x34>)
 8000258:	6812      	ldr	r2, [r2, #0]
 800025a:	f04f 0301 	mov.w	r3, #1
 800025e:	ea4f 1583 	mov.w	r5, r3, lsl #6
 8000262:	f04f 0606 	mov.w	r6, #6
 8000266:	f04f 0716 	mov.w	r7, #22
 800026a:	e7fe      	b.n	800026a <_start+0x1c>

0800026c <TIM2_IRQHandler>:
 800026c:	f8d0 8000 	ldr.w	r8, [r0]
 8000270:	ea28 0903 	bic.w	r9, r8, r3
 8000274:	f8c0 9000 	str.w	r9, [r0]
 8000278:	f018 0f01 	tst.w	r8, #1
 800027c:	d100      	bne.n	8000280 <toggle_led>
 800027e:	4770      	bx	lr

08000280 <toggle_led>:
 8000280:	f8d1 8000 	ldr.w	r8, [r1]
 8000284:	ea18 0f05 	tst.w	r8, r5
 8000288:	d102      	bne.n	8000290 <reset_bsrr>

0800028a <set_bsrr>:
 800028a:	fa03 f806 	lsl.w	r8, r3, r6
 800028e:	e001      	b.n	8000294 <write_bsrr>

08000290 <reset_bsrr>:
 8000290:	fa03 f807 	lsl.w	r8, r3, r7

08000294 <write_bsrr>:
 8000294:	f8c2 8000 	str.w	r8, [r2]
 8000298:	4770      	bx	lr
 800029a:	02cc0000 	sbceq	r0, ip, #0
 800029e:	02d00800 	sbcseq	r0, r0, #0, 16
 80002a2:	02ec0800 	rsceq	r0, ip, #0, 16
 80002a6:	02f00800 	rscseq	r0, r0, #0, 16
 80002aa:	02e40800 	rsceq	r0, r4, #0, 16
 80002ae:	02e80800 	rsceq	r0, r8, #0, 16
 80002b2:	02d80800 	sbcseq	r0, r8, #0, 16
 80002b6:	02fc0800 	rscseq	r0, ip, #0, 16
 80002ba:	02d40800 	sbcseq	r0, r4, #0, 16
 80002be:	02dc0800 	sbcseq	r0, ip, #0, 16
 80002c2:	02f40800 	rscseq	r0, r4, #0, 16
 80002c6:	02f80800 	rscseq	r0, r8, #0, 16
 80002ca:	 	subne	r0, ip, r0, lsl #16

080002cc <RCC_AHB2ENR>:
 80002cc:	4002104c 	andmi	r1, r2, ip, asr #32

080002d0 <RCC_APB1ENR1>:
 80002d0:	40021058 	andmi	r1, r2, r8, asr r0

080002d4 <TIM2_CR1>:
 80002d4:	40000000 	andmi	r0, r0, r0

080002d8 <TIM2_DIER>:
 80002d8:	4000000c 	andmi	r0, r0, ip

080002dc <TIM2_SR>:
 80002dc:	40000010 	andmi	r0, r0, r0, lsl r0

080002e0 <TIM2_CNT>:
 80002e0:	40000024 	andmi	r0, r0, r4, lsr #32

080002e4 <TIM2_PSC>:
 80002e4:	40000028 	andmi	r0, r0, r8, lsr #32

080002e8 <TIM2_ARR>:
 80002e8:	4000002c 	andmi	r0, r0, ip, lsr #32

080002ec <GPIOB_MODER>:
 80002ec:	48000400 	stmdami	r0, {sl}

080002f0 <GPIOB_OTYPER>:
 80002f0:	48000404 	stmdami	r0, {r2, sl}

080002f4 <GPIOB_ODR>:
 80002f4:	48000414 	stmdami	r0, {r2, r4, sl}

080002f8 <GPIOB_BSRR>:
 80002f8:	48000418 	stmdami	r0, {r3, r4, sl}

080002fc <NVIC_ISER0>:
 80002fc:	e000e100 	and	lr, r0, r0, lsl #2
